; Function Attrs: mustprogress nofree norecurse nosync nounwind willreturn memory(readwrite, inaccessiblemem: none) uwtable
define dso_local void @_ZN4llvm12MachineInstr14bundleWithPredEv(ptr nocapture noundef nonnull align 8 dereferenceable(70) %0) local_unnamed_addr #4 align 2 {
  %2 = getelementptr inbounds nuw i8, ptr %0, i64 44
  %3 = load i32, ptr %2, align 4
  %4 = or i32 %3, 4
  store i32 %4, ptr %2, align 4
  %.0.copyload.i.i.i.i.i.i = load i64, ptr %0, align 8
  %5 = and i64 %.0.copyload.i.i.i.i.i.i, -8
  %6 = inttoptr i64 %5 to ptr
  %7 = getelementptr inbounds nuw i8, ptr %6, i64 44
  %8 = load i32, ptr %7, align 4
  %9 = or i32 %8, 8
  store i32 %9, ptr %7, align 4
  ret void
}